target datalayout = "e-m:e-p270:32:32-p271:32:32-p272:64:64-i64:64-i128:128-f80:128-n8:16:32:64-S128"
target triple = "x86_64-pc-linux-gnu"

%"class.Imf_3_4::Zip" = type <{ i64, ptr, i32, [4 x i8] }>

@.str = private unnamed_addr constant [25 x i8] c"Data compression failed.\00", align 1
@_ZTIN7Iex_3_47BaseExcE = external constant ptr

; Function Attrs: mustprogress uwtable
define hidden noundef i64 @_ZN7Imf_3_43Zip17maxCompressedSizeEv(ptr noundef nonnull align 8 dereferenceable(20) %0) #0 align 2 {
  %2 = alloca ptr, align 8
  store ptr %0, ptr %2, align 8, !tbaa !3
  %3 = load ptr, ptr %2, align 8
  %4 = getelementptr inbounds nuw %"class.Imf_3_4::Zip", ptr %3, i32 0, i32 0
  %5 = load i64, ptr %4, align 8, !tbaa !12
  %6 = call i64 @exr_compress_max_buffer_size(i64 noundef %5)
  ret i64 %6
}

; Function Attrs: mustprogress uwtable
define hidden noundef i32 @_ZN7Imf_3_43Zip8compressEPKciPc(ptr noundef nonnull align 8 dereferenceable(20) %0, ptr noundef %1, i32 noundef %2, ptr noundef %3) #0 align 2 personality ptr @__gxx_personality_v0 {
  %5 = alloca ptr, align 8
  %6 = alloca ptr, align 8
  %7 = alloca i32, align 4
  %8 = alloca ptr, align 8
  %9 = alloca ptr, align 8
  %10 = alloca ptr, align 8
  %11 = alloca ptr, align 8
  %12 = alloca ptr, align 8
  %13 = alloca ptr, align 8
  %14 = alloca i32, align 4
  %15 = alloca i32, align 4
  %16 = alloca i64, align 8
  %17 = alloca ptr, align 8
  %18 = alloca i32, align 4
  store ptr %0, ptr %5, align 8, !tbaa !3
  store ptr %1, ptr %6, align 8, !tbaa !17
  store i32 %2, ptr %7, align 4, !tbaa !10
  store ptr %3, ptr %8, align 8, !tbaa !17
  %19 = load ptr, ptr %5, align 8
  call void @llvm.lifetime.start.p0(i64 8, ptr %9) #11
  %20 = getelementptr inbounds nuw %"class.Imf_3_4::Zip", ptr %19, i32 0, i32 1
  %21 = load ptr, ptr %20, align 8, !tbaa !15
  store ptr %21, ptr %9, align 8, !tbaa !17
  call void @llvm.lifetime.start.p0(i64 8, ptr %10) #11
  %22 = getelementptr inbounds nuw %"class.Imf_3_4::Zip", ptr %19, i32 0, i32 1
  %23 = load ptr, ptr %22, align 8, !tbaa !15
  %24 = load i32, ptr %7, align 4, !tbaa !10
  %25 = add nsw i32 %24, 1
  %26 = sdiv i32 %25, 2
  %27 = sext i32 %26 to i64
  %28 = getelementptr inbounds i8, ptr %23, i64 %27
  store ptr %28, ptr %10, align 8, !tbaa !17
  call void @llvm.lifetime.start.p0(i64 8, ptr %11) #11
  %29 = load ptr, ptr %6, align 8, !tbaa !17
  %30 = load i32, ptr %7, align 4, !tbaa !10
  %31 = sext i32 %30 to i64
  %32 = getelementptr inbounds i8, ptr %29, i64 %31
  store ptr %32, ptr %11, align 8, !tbaa !17
  br label %33

33:                                               ; preds = %56, %4
  br label %34

34:                                               ; preds = %33
  %35 = load ptr, ptr %6, align 8, !tbaa !17
  %36 = load ptr, ptr %11, align 8, !tbaa !17
  %37 = icmp ult ptr %35, %36
  br i1 %37, label %38, label %44

38:                                               ; preds = %34
  %39 = load ptr, ptr %6, align 8, !tbaa !17
  %40 = getelementptr inbounds nuw i8, ptr %39, i32 1
  store ptr %40, ptr %6, align 8, !tbaa !17
  %41 = load i8, ptr %39, align 1, !tbaa !18
  %42 = load ptr, ptr %9, align 8, !tbaa !17
  %43 = getelementptr inbounds nuw i8, ptr %42, i32 1
  store ptr %43, ptr %9, align 8, !tbaa !17
  store i8 %41, ptr %42, align 1, !tbaa !18
  br label %45

44:                                               ; preds = %34
  br label %57

45:                                               ; preds = %38
  %46 = load ptr, ptr %6, align 8, !tbaa !17
  %47 = load ptr, ptr %11, align 8, !tbaa !17
  %48 = icmp ult ptr %46, %47
  br i1 %48, label %49, label %55

49:                                               ; preds = %45
  %50 = load ptr, ptr %6, align 8, !tbaa !17
  %51 = getelementptr inbounds nuw i8, ptr %50, i32 1
  store ptr %51, ptr %6, align 8, !tbaa !17
  %52 = load i8, ptr %50, align 1, !tbaa !18
  %53 = load ptr, ptr %10, align 8, !tbaa !17
  %54 = getelementptr inbounds nuw i8, ptr %53, i32 1
  store ptr %54, ptr %10, align 8, !tbaa !17
  store i8 %52, ptr %53, align 1, !tbaa !18
  br label %56

55:                                               ; preds = %45
  br label %57

56:                                               ; preds = %49
  br label %33, !llvm.loop !19

57:                                               ; preds = %55, %44
  call void @llvm.lifetime.end.p0(i64 8, ptr %11) #11
  call void @llvm.lifetime.end.p0(i64 8, ptr %10) #11
  call void @llvm.lifetime.end.p0(i64 8, ptr %9) #11
  call void @llvm.lifetime.start.p0(i64 8, ptr %12) #11
  %58 = getelementptr inbounds nuw %"class.Imf_3_4::Zip", ptr %19, i32 0, i32 1
  %59 = load ptr, ptr %58, align 8, !tbaa !15
  %60 = getelementptr inbounds i8, ptr %59, i64 1
  store ptr %60, ptr %12, align 8, !tbaa !17
  call void @llvm.lifetime.start.p0(i64 8, ptr %13) #11
  %61 = getelementptr inbounds nuw %"class.Imf_3_4::Zip", ptr %19, i32 0, i32 1
  %62 = load ptr, ptr %61, align 8, !tbaa !15
  %63 = load i32, ptr %7, align 4, !tbaa !10
  %64 = sext i32 %63 to i64
  %65 = getelementptr inbounds i8, ptr %62, i64 %64
  store ptr %65, ptr %13, align 8, !tbaa !17
  call void @llvm.lifetime.start.p0(i64 4, ptr %14) #11
  %66 = load ptr, ptr %12, align 8, !tbaa !17
  %67 = getelementptr inbounds i8, ptr %66, i64 -1
  %68 = load i8, ptr %67, align 1, !tbaa !18
  %69 = zext i8 %68 to i32
  store i32 %69, ptr %14, align 4, !tbaa !10
  br label %70

70:                                               ; preds = %74, %57
  %71 = load ptr, ptr %12, align 8, !tbaa !17
  %72 = load ptr, ptr %13, align 8, !tbaa !17
  %73 = icmp ult ptr %71, %72
  br i1 %73, label %74, label %92

74:                                               ; preds = %70
  call void @llvm.lifetime.start.p0(i64 4, ptr %15) #11
  %75 = load ptr, ptr %12, align 8, !tbaa !17
  %76 = getelementptr inbounds i8, ptr %75, i64 0
  %77 = load i8, ptr %76, align 1, !tbaa !18
  %78 = zext i8 %77 to i32
  %79 = load i32, ptr %14, align 4, !tbaa !10
  %80 = sub nsw i32 %78, %79
  %81 = add nsw i32 %80, 384
  store i32 %81, ptr %15, align 4, !tbaa !10
  %82 = load ptr, ptr %12, align 8, !tbaa !17
  %83 = getelementptr inbounds i8, ptr %82, i64 0
  %84 = load i8, ptr %83, align 1, !tbaa !18
  %85 = zext i8 %84 to i32
  store i32 %85, ptr %14, align 4, !tbaa !10
  %86 = load i32, ptr %15, align 4, !tbaa !10
  %87 = trunc i32 %86 to i8
  %88 = load ptr, ptr %12, align 8, !tbaa !17
  %89 = getelementptr inbounds i8, ptr %88, i64 0
  store i8 %87, ptr %89, align 1, !tbaa !18
  %90 = load ptr, ptr %12, align 8, !tbaa !17
  %91 = getelementptr inbounds nuw i8, ptr %90, i32 1
  store ptr %91, ptr %12, align 8, !tbaa !17
  call void @llvm.lifetime.end.p0(i64 4, ptr %15) #11
  br label %70, !llvm.loop !21

92:                                               ; preds = %70
  call void @llvm.lifetime.end.p0(i64 4, ptr %14) #11
  call void @llvm.lifetime.end.p0(i64 8, ptr %13) #11
  call void @llvm.lifetime.end.p0(i64 8, ptr %12) #11
  call void @llvm.lifetime.start.p0(i64 8, ptr %16) #11
  %93 = getelementptr inbounds nuw %"class.Imf_3_4::Zip", ptr %19, i32 0, i32 2
  %94 = load i32, ptr %93, align 8, !tbaa !16
  %95 = getelementptr inbounds nuw %"class.Imf_3_4::Zip", ptr %19, i32 0, i32 1
  %96 = load ptr, ptr %95, align 8, !tbaa !15
  %97 = load i32, ptr %7, align 4, !tbaa !10
  %98 = sext i32 %97 to i64
  %99 = load ptr, ptr %8, align 8, !tbaa !17
  %100 = call noundef i64 @_ZN7Imf_3_43Zip17maxCompressedSizeEv(ptr noundef nonnull align 8 dereferenceable(20) %19)
  %101 = call i32 @exr_compress_buffer(ptr noundef null, i32 noundef %94, ptr noundef %96, i64 noundef %98, ptr noundef %99, i64 noundef %100, ptr noundef %16)
  %102 = icmp ne i32 0, %101
  br i1 %102, label %103, label %110

103:                                              ; preds = %92
  %104 = call ptr @__cxa_allocate_exception(i64 72) #11
  invoke void @_ZN7Iex_3_47BaseExcC1EPKc(ptr noundef nonnull align 8 dereferenceable(72) %104, ptr noundef @.str)
          to label %105 unwind label %106

105:                                              ; preds = %103
  call void @__cxa_throw(ptr %104, ptr @_ZTIN7Iex_3_47BaseExcE, ptr @_ZN7Iex_3_47BaseExcD1Ev) #12
  unreachable

106:                                              ; preds = %103
  %107 = landingpad { ptr, i32 }
          cleanup
  %108 = extractvalue { ptr, i32 } %107, 0
  store ptr %108, ptr %17, align 8
  %109 = extractvalue { ptr, i32 } %107, 1
  store i32 %109, ptr %18, align 4
  call void @__cxa_free_exception(ptr %104) #11
  call void @llvm.lifetime.end.p0(i64 8, ptr %16) #11
  br label %113

110:                                              ; preds = %92
  %111 = load i64, ptr %16, align 8, !tbaa !8
  %112 = trunc i64 %111 to i32
  call void @llvm.lifetime.end.p0(i64 8, ptr %16) #11
  ret i32 %112

113:                                              ; preds = %106
  %114 = load ptr, ptr %17, align 8
  %115 = load i32, ptr %18, align 4
  %116 = insertvalue { ptr, i32 } poison, ptr %114, 0
  %117 = insertvalue { ptr, i32 } %116, i32 %115, 1
  resume { ptr, i32 } %117
}