; Function Attrs: mustprogress uwtable
define hidden noundef i32 @_ZN7Imf_3_43Zip8compressEPKciPc(ptr noundef nonnull readonly align 8 captures(none) dereferenceable(20) %0, ptr noundef readonly %1, i32 noundef %2, ptr noundef %3) local_unnamed_addr #0 align 2 personality ptr @__gxx_personality_v0 {
  %5 = alloca i64, align 8
  %6 = getelementptr inbounds nuw i8, ptr %0, i64 8
  %7 = load ptr, ptr %6, align 8, !tbaa !11
  %8 = sext i32 %2 to i64
  %9 = getelementptr inbounds i8, ptr %1, i64 %8
  %10 = icmp sgt i32 %2, 0
  br i1 %10, label %.lr.ph.preheader, label %._crit_edge40

.lr.ph.preheader:                                 ; preds = %4
  %11 = add nuw nsw i32 %2, 1
  %12 = lshr i32 %11, 1
  %13 = zext nneg i32 %12 to i64
  %14 = getelementptr inbounds nuw i8, ptr %7, i64 %13
  br label %.lr.ph

.lr.ph:                                           ; preds = %.lr.ph.preheader, %18
  %.033 = phi ptr [ %20, %18 ], [ %1, %.lr.ph.preheader ]
  %.02532 = phi ptr [ %19, %18 ], [ %7, %.lr.ph.preheader ]
  %.02631 = phi ptr [ %22, %18 ], [ %14, %.lr.ph.preheader ]
  %15 = getelementptr inbounds nuw i8, ptr %.033, i64 1
  %16 = load i8, ptr %.033, align 1, !tbaa !13
  store i8 %16, ptr %.02532, align 1, !tbaa !13
  %17 = icmp ult ptr %15, %9
  br i1 %17, label %18, label %._crit_edge

18:                                               ; preds = %.lr.ph
  %19 = getelementptr inbounds nuw i8, ptr %.02532, i64 1
  %20 = getelementptr inbounds nuw i8, ptr %.033, i64 2
  %21 = load i8, ptr %15, align 1, !tbaa !13
  %22 = getelementptr inbounds nuw i8, ptr %.02631, i64 1
  store i8 %21, ptr %.02631, align 1, !tbaa !13
  %23 = icmp ult ptr %20, %9
  br i1 %23, label %.lr.ph, label %._crit_edge, !llvm.loop !14

._crit_edge:                                      ; preds = %18, %.lr.ph
  %.pre = load ptr, ptr %6, align 8, !tbaa !11
  %24 = getelementptr inbounds nuw i8, ptr %.pre, i64 %8
  %.not42 = icmp eq i32 %2, 1
  br i1 %.not42, label %._crit_edge40, label %.lr.ph39.preheader

.lr.ph39.preheader:                               ; preds = %._crit_edge
  %.02835 = getelementptr inbounds nuw i8, ptr %.pre, i64 1
  %25 = load i8, ptr %.pre, align 1, !tbaa !13
  br label %.lr.ph39

.lr.ph39:                                         ; preds = %.lr.ph39.preheader, %.lr.ph39
  %.02837 = phi ptr [ %.028, %.lr.ph39 ], [ %.02835, %.lr.ph39.preheader ]
  %.02736 = phi i8 [ %26, %.lr.ph39 ], [ %25, %.lr.ph39.preheader ]
  %26 = load i8, ptr %.02837, align 1, !tbaa !13
  %27 = sub i8 %26, %.02736
  %28 = xor i8 %27, -128
  store i8 %28, ptr %.02837, align 1, !tbaa !13
  %.028 = getelementptr inbounds nuw i8, ptr %.02837, i64 1
  %29 = icmp ult ptr %.028, %24
  br i1 %29, label %.lr.ph39, label %._crit_edge40.loopexit, !llvm.loop !16

._crit_edge40.loopexit:                           ; preds = %.lr.ph39
  %.pre41 = load ptr, ptr %6, align 8, !tbaa !11
  br label %._crit_edge40

._crit_edge40:                                    ; preds = %4, %._crit_edge40.loopexit, %._crit_edge
  %30 = phi ptr [ %.pre41, %._crit_edge40.loopexit ], [ %.pre, %._crit_edge ], [ %7, %4 ]
  call void @llvm.lifetime.start.p0(i64 8, ptr nonnull %5) #14
  %31 = getelementptr inbounds nuw i8, ptr %0, i64 16
  %32 = load i32, ptr %31, align 8, !tbaa !12
  %33 = load i64, ptr %0, align 8, !tbaa !3
  %34 = tail call noundef i64 @exr_compress_max_buffer_size(i64 noundef %33)
  %35 = call i32 @exr_compress_buffer(ptr noundef null, i32 noundef %32, ptr noundef %30, i64 noundef %8, ptr noundef %3, i64 noundef %34, ptr noundef nonnull %5)
  %.not = icmp eq i32 %35, 0
  br i1 %.not, label %41, label %36

36:                                               ; preds = %._crit_edge40
  %37 = call ptr @__cxa_allocate_exception(i64 72) #14
  invoke void @_ZN7Iex_3_47BaseExcC1EPKc(ptr noundef nonnull align 8 dereferenceable(72) %37, ptr noundef nonnull @.str)
          to label %38 unwind label %39

38:                                               ; preds = %36
  call void @__cxa_throw(ptr nonnull %37, ptr nonnull @_ZTIN7Iex_3_47BaseExcE, ptr nonnull @_ZN7Iex_3_47BaseExcD1Ev) #15
  unreachable

39:                                               ; preds = %36
  %40 = landingpad { ptr, i32 }
          cleanup
  call void @__cxa_free_exception(ptr nonnull %37) #14
  call void @llvm.lifetime.end.p0(i64 8, ptr nonnull %5) #14
  resume { ptr, i32 } %40

41:                                               ; preds = %._crit_edge40
  %42 = load i64, ptr %5, align 8, !tbaa !17
  %43 = trunc i64 %42 to i32
  call void @llvm.lifetime.end.p0(i64 8, ptr nonnull %5) #14
  ret i32 %43
}